; ModuleID = '49/520.c'
source_filename = "49/520.c"
target datalayout = "e-m:e-p270:32:32-p271:32:32-p272:64:64-i64:64-f80:128-n8:16:32:64-S128"
target triple = "x86_64-pc-linux-gnu"

@.str = private unnamed_addr constant [3 x i8] c"%s\00", align 1
@.str.1 = private unnamed_addr constant [3 x i8] c"%c\00", align 1
@.str.2 = private unnamed_addr constant [2 x i8] c"\0A\00", align 1

; Function Attrs: noinline nounwind uwtable
define dso_local i32 @main() #0 {
  %1 = alloca i32, align 4
  %2 = alloca [102 x i8], align 16
  %3 = alloca i32, align 4
  %4 = alloca i32, align 4
  %5 = alloca i32, align 4
  %6 = alloca i32, align 4
  store i32 0, i32* %1, align 4
  %7 = getelementptr inbounds [102 x i8], [102 x i8]* %2, i64 0, i64 0
  %8 = call i32 (i8*, ...) @__isoc99_scanf(i8* getelementptr inbounds ([3 x i8], [3 x i8]* @.str, i64 0, i64 0), i8* %7)
  store i32 0, i32* %3, align 4
  br label %9

9:                                                ; preds = %18, %0
  %10 = load i32, i32* %3, align 4
  %11 = sext i32 %10 to i64
  %12 = getelementptr inbounds [102 x i8], [102 x i8]* %2, i64 0, i64 %11
  %13 = load i8, i8* %12, align 1
  %14 = sext i8 %13 to i32
  %15 = icmp ne i32 %14, 0
  br i1 %15, label %16, label %21

16:                                               ; preds = %9
  %17 = load i32, i32* %3, align 4
  store i32 %17, i32* %6, align 4
  br label %18

18:                                               ; preds = %16
  %19 = load i32, i32* %3, align 4
  %20 = add nsw i32 %19, 1
  store i32 %20, i32* %3, align 4
  br label %9

21:                                               ; preds = %9
  %22 = load i32, i32* %3, align 4
  store i32 %22, i32* %6, align 4
  store i32 1, i32* %3, align 4
  br label %23

23:                                               ; preds = %99, %21
  %24 = load i32, i32* %3, align 4
  %25 = load i32, i32* %6, align 4
  %26 = icmp sle i32 %24, %25
  br i1 %26, label %27, label %102

27:                                               ; preds = %23
  store i32 0, i32* %4, align 4
  br label %28

28:                                               ; preds = %95, %27
  %29 = load i32, i32* %4, align 4
  %30 = load i32, i32* %3, align 4
  %31 = add nsw i32 %29, %30
  %32 = sext i32 %31 to i64
  %33 = getelementptr inbounds [102 x i8], [102 x i8]* %2, i64 0, i64 %32
  %34 = load i8, i8* %33, align 1
  %35 = sext i8 %34 to i32
  %36 = icmp ne i32 %35, 0
  br i1 %36, label %37, label %98

37:                                               ; preds = %28
  %38 = load i32, i32* %4, align 4
  store i32 %38, i32* %5, align 4
  br label %39

39:                                               ; preds = %64, %37
  %40 = load i32, i32* %5, align 4
  %41 = load i32, i32* %4, align 4
  %42 = load i32, i32* %3, align 4
  %43 = add nsw i32 %41, %42
  %44 = icmp sle i32 %40, %43
  br i1 %44, label %45, label %67

45:                                               ; preds = %39
  %46 = load i32, i32* %5, align 4
  %47 = sext i32 %46 to i64
  %48 = getelementptr inbounds [102 x i8], [102 x i8]* %2, i64 0, i64 %47
  %49 = load i8, i8* %48, align 1
  %50 = sext i8 %49 to i32
  %51 = load i32, i32* %4, align 4
  %52 = mul nsw i32 2, %51
  %53 = load i32, i32* %3, align 4
  %54 = add nsw i32 %52, %53
  %55 = load i32, i32* %5, align 4
  %56 = sub nsw i32 %54, %55
  %57 = sext i32 %56 to i64
  %58 = getelementptr inbounds [102 x i8], [102 x i8]* %2, i64 0, i64 %57
  %59 = load i8, i8* %58, align 1
  %60 = sext i8 %59 to i32
  %61 = icmp ne i32 %50, %60
  br i1 %61, label %62, label %63

62:                                               ; preds = %45
  br label %67

63:                                               ; preds = %45
  br label %64

64:                                               ; preds = %63
  %65 = load i32, i32* %5, align 4
  %66 = add nsw i32 %65, 1
  store i32 %66, i32* %5, align 4
  br label %39

67:                                               ; preds = %62, %39
  %68 = load i32, i32* %5, align 4
  %69 = load i32, i32* %4, align 4
  %70 = load i32, i32* %3, align 4
  %71 = add nsw i32 %69, %70
  %72 = add nsw i32 %71, 1
  %73 = icmp eq i32 %68, %72
  br i1 %73, label %74, label %94

74:                                               ; preds = %67
  %75 = load i32, i32* %4, align 4
  store i32 %75, i32* %5, align 4
  br label %76

76:                                               ; preds = %89, %74
  %77 = load i32, i32* %5, align 4
  %78 = load i32, i32* %4, align 4
  %79 = load i32, i32* %3, align 4
  %80 = add nsw i32 %78, %79
  %81 = icmp sle i32 %77, %80
  br i1 %81, label %82, label %92

82:                                               ; preds = %76
  %83 = load i32, i32* %5, align 4
  %84 = sext i32 %83 to i64
  %85 = getelementptr inbounds [102 x i8], [102 x i8]* %2, i64 0, i64 %84
  %86 = load i8, i8* %85, align 1
  %87 = sext i8 %86 to i32
  %88 = call i32 (i8*, ...) @printf(i8* getelementptr inbounds ([3 x i8], [3 x i8]* @.str.1, i64 0, i64 0), i32 %87)
  br label %89

89:                                               ; preds = %82
  %90 = load i32, i32* %5, align 4
  %91 = add nsw i32 %90, 1
  store i32 %91, i32* %5, align 4
  br label %76

92:                                               ; preds = %76
  %93 = call i32 (i8*, ...) @printf(i8* getelementptr inbounds ([2 x i8], [2 x i8]* @.str.2, i64 0, i64 0))
  br label %94

94:                                               ; preds = %92, %67
  br label %95

95:                                               ; preds = %94
  %96 = load i32, i32* %4, align 4
  %97 = add nsw i32 %96, 1
  store i32 %97, i32* %4, align 4
  br label %28

98:                                               ; preds = %28
  br label %99

99:                                               ; preds = %98
  %100 = load i32, i32* %3, align 4
  %101 = add nsw i32 %100, 1
  store i32 %101, i32* %3, align 4
  br label %23

102:                                              ; preds = %23
  %103 = load i32, i32* %1, align 4
  ret i32 %103
}

declare dso_local i32 @__isoc99_scanf(i8*, ...) #1

declare dso_local i32 @printf(i8*, ...) #1


!llvm.module.flags = !{!0}
!llvm.ident = !{!1}

!0 = !{i32 1, !"wchar_size", i32 4}
!1 = !{!"clang version 10.0.0-4ubuntu1 "}
